((dp1
S'x'
p2
I0
sS'height'
p3
I698
sS'width'
p4
I1061
sS'state'
p5
I0
sS'y'
p6
I0
s(lp7
(S'input'
p8
N(dp9
S'height'
p10
I32
sS'x'
p11
I115
sS'label'
p12
I0
sS'width'
p13
I51
sS'y'
p14
I311
stp15
a(S'error'
p16
N(dp17
S'height'
p18
I32
sS'x'
p19
I317
sS'label'
p20
I0
sS'width'
p21
I53
sS'y'
p22
I142
stp23
a(S'switch'
p24
N(dp25
S'height'
p26
I32
sS'x'
p27
I113
sS'label'
p28
I0
sS'width'
p29
I65
sS'y'
p30
I48
stp31
a(S'pre'
p32
N(dp33
S'height'
p34
I32
sS'x'
p35
I321
sS'label'
p36
I0
sS'width'
p37
I39
sS'y'
p38
I309
stp39
a(S'post'
p40
N(dp41
S'height'
p42
I32
sS'x'
p43
I551
sS'label'
p44
I0
sS'width'
p45
I48
sS'y'
p46
I310
stp47
a(S'switch'
p48
S'control'
p49
(dp50
S'height'
p51
I176
sS'x'
p52
I41
sS'range'
p53
F1.0
sS'limits'
p54
I1
sS'label'
p55
I1
sS'width'
p56
I61
sS'limits_w'
p57
I0
sS'y'
p58
I10
stp59
a(S'input'
p60
S'value|origin'
p61
(dp62
S'height'
p63
I210
sS'x'
p64
I0
sS'sel_dim'
p65
(lp66
I0
asS'label'
p67
I1
sS'autozoom'
p68
I0
sS'width'
p69
I300
sS'last_maxy'
p70
F1.0000000000000007
sS'y'
p71
I367
stp72
a(S'pre'
p73
S'value|X'
p74
(dp75
S'height'
p76
I210
sS'x'
p77
I302
sg65
(lp78
I0
asS'label'
p79
I1
sg68
I0
sS'width'
p80
I300
sg70
F1.0000000000000007
sS'y'
p81
I369
stp82
a(S'actual error'
p83
S'value|X'
p84
(dp85
S'height'
p86
I188
sS'x'
p87
I714
sg65
(lp88
I0
asS'label'
p89
I1
sg68
I0
sS'width'
p90
I268
sg70
F1.0000000000000007
sS'y'
p91
I23
stp92
a(S'post'
p93
S'value|X'
p94
(dp95
S'height'
p96
I210
sS'x'
p97
I600
sg65
(lp98
I0
asS'label'
p99
I1
sg68
I0
sS'width'
p100
I300
sg70
F1.0000000000000007
sS'y'
p101
I375
stp102
a(S'error'
p103
S'value|X'
p104
(dp105
S'height'
p106
I188
sS'x'
p107
I432
sg65
(lp108
I0
asS'label'
p109
I1
sg68
I0
sS'width'
p110
I268
sg70
F1.0
sS'y'
p111
I25
stp112
a(S'post'
p113
S'pre_00'
p114
(dp115
S'height'
p116
I149
sS'x'
p117
I900
sS'label'
p118
I1
sS'width'
p119
I151
sS'rows'
p120
NsS'y'
p121
I420
stp122
a(S'Gate'
p123
N(dp124
S'height'
p125
I32
sS'x'
p126
I316
sS'label'
p127
I0
sS'width'
p128
I54
sS'y'
p129
I50
stp130
a(S'input'
p131
S'control'
p132
(dp133
S'height'
p134
I162
sS'x'
p135
I42
sg53
F1.0
sg54
I1
sS'label'
p136
I1
sS'width'
p137
I61
sg57
I0
sS'y'
p138
I195
stp139
a(dp140
S'sim_spd'
p141
I4
sS'rcd_time'
p142
F4.0
sS'filter'
p143
F0.03
sS'dt'
p144
I0
sS'show_time'
p145
F0.5
stp146
.