((dp1
S'x'
p2
I0
sS'height'
p3
I698
sS'width'
p4
I1206
sS'state'
p5
I0
sS'y'
p6
I0
s(lp7
(S'input'
p8
N(dp9
S'height'
p10
I32
sS'x'
p11
I69
sS'label'
p12
I0
sS'width'
p13
I51
sS'y'
p14
I313
stp15
a(S'error'
p16
N(dp17
S'height'
p18
I32
sS'x'
p19
I315
sS'label'
p20
I0
sS'width'
p21
I53
sS'y'
p22
I88
stp23
a(S'switch'
p24
N(dp25
S'height'
p26
I32
sS'x'
p27
I123
sS'label'
p28
I0
sS'width'
p29
I65
sS'y'
p30
I92
stp31
a(S'pre'
p32
N(dp33
S'height'
p34
I32
sS'x'
p35
I321
sS'label'
p36
I0
sS'width'
p37
I39
sS'y'
p38
I309
stp39
a(S'post'
p40
N(dp41
S'height'
p42
I32
sS'x'
p43
I551
sS'label'
p44
I0
sS'width'
p45
I48
sS'y'
p46
I308
stp47
a(S'gate'
p48
N(dp49
S'height'
p50
I32
sS'x'
p51
I217
sS'label'
p52
I0
sS'width'
p53
I49
sS'y'
p54
I90
stp55
a(S'switch'
p56
S'control'
p57
(dp58
S'height'
p59
I200
sS'x'
p60
I28
sS'range'
p61
F1.0
sS'limits'
p62
I1
sS'label'
p63
I0
sS'width'
p64
I80
sS'limits_w'
p65
I0
sS'y'
p66
I15
stp67
a(S'input'
p68
S'value|origin'
p69
(dp70
S'height'
p71
I210
sS'x'
p72
I10
sS'sel_dim'
p73
(lp74
I0
asS'label'
p75
I1
sS'autozoom'
p76
I0
sS'width'
p77
I300
sS'last_maxy'
p78
F1.0000000000000007
sS'y'
p79
I355
stp80
a(S'pre'
p81
S'value|X'
p82
(dp83
S'height'
p84
I210
sS'x'
p85
I324
sg73
(lp86
I0
asS'label'
p87
I1
sg76
I0
sS'width'
p88
I300
sg78
F1.0
sS'y'
p89
I365
stp90
a(S'actual error'
p91
S'value|X'
p92
(dp93
S'height'
p94
I210
sS'x'
p95
I811
sg73
(lp96
I0
asS'label'
p97
I1
sg76
I0
sS'width'
p98
I300
sg78
F1.0
sS'y'
p99
I24
stp100
a(S'post'
p101
S'value|X'
p102
(dp103
S'height'
p104
I210
sS'x'
p105
I637
sg73
(lp106
I0
asS'label'
p107
I1
sg76
I0
sS'width'
p108
I300
sg78
F1.0
sS'y'
p109
I365
stp110
a(S'error'
p111
S'value|X'
p112
(dp113
S'height'
p114
I210
sS'x'
p115
I514
sg73
(lp116
I0
asS'label'
p117
I1
sg76
I0
sS'width'
p118
I300
sg78
F1.0
sS'y'
p119
I24
stp120
a(S'post'
p121
S'pre_00'
p122
(dp123
S'height'
p124
I200
sS'x'
p125
I960
sS'label'
p126
I0
sS'width'
p127
I200
sS'rows'
p128
NsS'y'
p129
I369
stp130
a(dp131
S'sim_spd'
p132
I4
sS'rcd_time'
p133
F4.0
sS'filter'
p134
F0.03
sS'dt'
p135
I0
sS'show_time'
p136
F0.5
stp137
.