((dp1
S'x'
p2
I0
sS'height'
p3
I600
sS'width'
p4
I862
sS'state'
p5
I0
sS'y'
p6
I0
s(lp7
(S'X'
p8
N(dp9
S'height'
p10
I32
sS'x'
p11
I153
sS'label'
p12
I0
sS'width'
p13
I23
sS'y'
p14
I198
stp15
a(S'Y'
p16
N(dp17
S'height'
p18
I32
sS'x'
p19
I149
sS'label'
p20
I0
sS'width'
p21
I24
sS'y'
p22
I297
stp23
a(S'result (multiplication)'
p24
N(dp25
S'height'
p26
I28
sS'x'
p27
I520
sS'label'
p28
I0
sS'width'
p29
I186
sS'y'
p30
I251
stp31
a(S'2D Vector'
p32
N(dp33
S'height'
p34
I32
sS'x'
p35
I289
sS'label'
p36
I0
sS'width'
p37
I99
sS'y'
p38
I248
stp39
a(S'input X'
p40
S'control'
p41
(dp42
S'height'
p43
I200
sS'x'
p44
I71
sS'range'
p45
F1.0
sS'limits'
p46
I1
sS'label'
p47
I1
sS'width'
p48
I80
sS'limits_w'
p49
I0
sS'y'
p50
I74
stp51
a(S'input Y'
p52
g41
(dp53
S'height'
p54
I200
sS'x'
p55
I72
sg45
F1.0
sg46
I1
sS'label'
p56
I1
sS'width'
p57
I80
sg49
I0
sS'y'
p58
I277
stp59
a(S'2D Vector'
p60
S'XY plot|X'
p61
(dp62
S'width'
p63
I177
sS'autohide'
p64
I1
sS'last_maxy'
p65
F1.0000000000000007
sS'sel_dim'
p66
(lp67
I0
aI1
asS'y'
p68
I296
sS'label'
p69
I1
sS'x'
p70
I318
sS'autozoom'
p71
I1
sS'height'
p72
I177
stp73
a(S'result (multiplication)'
p74
S'value|X'
p75
(dp76
S'height'
p77
I197
sS'x'
p78
I499
sS'sel_dim'
p79
(lp80
I0
asS'label'
p81
I1
sS'autozoom'
p82
I0
sS'width'
p83
I297
sS'last_maxy'
p84
F1.0
sS'y'
p85
I289
stp86
a(S'X'
p87
S'value|X'
p88
(dp89
S'height'
p90
I117
sS'x'
p91
I154
sg79
(lp92
I0
asS'label'
p93
I1
sg82
I0
sS'width'
p94
I176
sg84
F2.0000000000000013
sS'y'
p95
I74
stp96
a(S'Y'
p97
S'value|X'
p98
(dp99
S'height'
p100
I117
sS'x'
p101
I151
sg79
(lp102
I0
asS'label'
p103
I1
sg82
I0
sS'width'
p104
I176
sg84
F1.0
sS'y'
p105
I348
stp106
a(S'result (squaring)'
p107
N(dp108
S'height'
p109
I32
sS'x'
p110
I542
sS'label'
p111
I0
sS'width'
p112
I152
sS'y'
p113
I198
stp114
a(S'result (squaring)'
p115
S'value|X'
p116
(dp117
S'height'
p118
I186
sS'x'
p119
I511
sg79
(lp120
I0
asS'label'
p121
I1
sg82
I0
sS'width'
p122
I267
sg84
F1.0000000000000007
sS'y'
p123
I3
stp124
a(dp125
S'sim_spd'
p126
I4
sS'rcd_time'
p127
F4.0
sS'filter'
p128
F0.03
sS'dt'
p129
I0
sS'show_time'
p130
F0.5
stp131
.