((dp1
S'x'
p2
I0
sS'height'
p3
I469
sS'width'
p4
I800
sS'state'
p5
I0
sS'y'
p6
I0
s(lp7
(S'A'
p8
N(dp9
S'height'
p10
I32
sS'x'
p11
I223
sS'label'
p12
I0
sS'width'
p13
I23
sS'y'
p14
I149
stp15
a(S'E'
p16
N(dp17
S'height'
p18
I32
sS'x'
p19
I324
sS'label'
p20
I0
sS'width'
p21
I23
sS'y'
p22
I275
stp23
a(S'F'
p24
N(dp25
S'height'
p26
I32
sS'x'
p27
I527
sS'label'
p28
I0
sS'width'
p29
I22
sS'y'
p30
I183
stp31
a(S'B'
p32
N(dp33
S'height'
p34
I32
sS'x'
p35
I222
sS'label'
p36
I0
sS'width'
p37
I23
sS'y'
p38
I54
stp39
a(S'/'
p40
N(dp41
S'height'
p42
I32
sS'x'
p43
I436
sS'label'
p44
I0
sS'width'
p45
I16
sS'y'
p46
I179
stp47
a(S'*'
p48
N(dp49
S'height'
p50
I32
sS'x'
p51
I296
sS'label'
p52
I0
sS'width'
p53
I18
sS'y'
p54
I97
stp55
a(S'C'
p56
N(dp57
S'height'
p58
I32
sS'x'
p59
I375
sS'label'
p60
I0
sS'width'
p61
I24
sS'y'
p62
I97
stp63
a(S'B'
p64
S'value (grid)|X'
p65
(dp66
S'height'
p67
I84
sS'x'
p68
I132
sS'label'
p69
I0
sS'width'
p70
I84
sS'y'
p71
I20
stp72
a(S'A'
p73
S'value (grid)|X'
p74
(dp75
S'height'
p76
I84
sS'x'
p77
I134
sS'label'
p78
I0
sS'width'
p79
I84
sS'y'
p80
I133
stp81
a(S'A'
p82
S'semantic pointer'
p83
(dp84
S'height'
p85
I92
sS'x'
p86
I-1
sS'sel_dim'
p87
(lp88
I0
aI1
aI2
aI3
asS'label'
p89
I0
sS'autozoom'
p90
I0
sS'width'
p91
I140
sS'last_maxy'
p92
F1.0
sS'y'
p93
I122
stp94
a(S'B'
p95
g83
(dp96
S'height'
p97
I93
sS'x'
p98
I-3
sg87
(lp99
I0
aI1
aI2
aI3
asS'label'
p100
I0
sg90
I0
sS'width'
p101
I141
sg92
F1.0
sS'y'
p102
I14
stp103
a(S'E'
p104
S'value (grid)|X'
p105
(dp106
S'height'
p107
I84
sS'x'
p108
I238
sS'label'
p109
I0
sS'width'
p110
I84
sS'y'
p111
I252
stp112
a(S'E'
p113
g83
(dp114
S'height'
p115
I104
sS'x'
p116
I82
sg87
(lp117
I0
aI1
aI2
aI3
asS'label'
p118
I0
sg90
I0
sS'width'
p119
I157
sg92
F1.0
sS'y'
p120
I233
stp121
a(S'C'
p122
S'value (grid)|X'
p123
(dp124
S'height'
p125
I105
sS'x'
p126
I417
sS'label'
p127
I0
sS'width'
p128
I105
sS'y'
p129
I17
stp130
a(S'F'
p131
S'value (grid)|X'
p132
(dp133
S'height'
p134
I117
sS'x'
p135
I599
sS'label'
p136
I0
sS'width'
p137
I117
sS'y'
p138
I88
stp139
a(S'F'
p140
g83
(dp141
S'height'
p142
I144
sS'x'
p143
I542
sg87
(lp144
I0
aI1
aI2
aI3
asS'label'
p145
I0
sg90
I0
sS'width'
p146
I216
sg92
F1.0
sS'y'
p147
I207
stp148
a(dp149
S'sim_spd'
p150
I4
sS'rcd_time'
p151
F4.0
sS'filter'
p152
F0.01
sS'dt'
p153
I0
sS'show_time'
p154
F0.5
stp155
.