((dp1
S'x'
p2
I0
sS'height'
p3
I469
sS'width'
p4
I800
sS'state'
p5
I0
sS'y'
p6
I0
s(lp7
(S'GPe'
p8
N(dp9
S'height'
p10
I32
sS'x'
p11
I690
sS'label'
p12
I0
sS'width'
p13
I50
sS'y'
p14
I306
stp15
a(S'GPi'
p16
N(dp17
S'height'
p18
I32
sS'x'
p19
I620
sS'label'
p20
I0
sS'width'
p21
I43
sS'y'
p22
I306
stp23
a(S'visual'
p24
N(dp25
S'height'
p26
I32
sS'x'
p27
I37
sS'label'
p28
I0
sS'width'
p29
I58
sS'y'
p30
I76
stp31
a(S'motor'
p32
N(dp33
S'height'
p34
I32
sS'x'
p35
I689
sS'label'
p36
I0
sS'width'
p37
I61
sS'y'
p38
I111
stp39
a(S'STN'
p40
N(dp41
S'height'
p42
I32
sS'x'
p43
I655
sS'label'
p44
I0
sS'width'
p45
I48
sS'y'
p46
I248
stp47
a(S'StrD2'
p48
N(dp49
S'height'
p50
I32
sS'x'
p51
I713
sS'label'
p52
I0
sS'width'
p53
I61
sS'y'
p54
I247
stp55
a(S'StrD1'
p56
N(dp57
S'height'
p58
I32
sS'x'
p59
I589
sS'label'
p60
I0
sS'width'
p61
I61
sS'y'
p62
I244
stp63
a(S'thalamus'
p64
N(dp65
S'height'
p66
I32
sS'x'
p67
I144
sS'label'
p68
I0
sS'width'
p69
I88
sS'y'
p70
I314
stp71
a(S'memory'
p72
N(dp73
S'height'
p74
I32
sS'x'
p75
I335
sS'label'
p76
I0
sS'width'
p77
I81
sS'y'
p78
I57
stp79
a(S'thalamus'
p80
S'firing rate'
p81
(dp82
S'height'
p83
I90
sS'x'
p84
I61
sS'label'
p85
I1
sS'width'
p86
I75
sS'rows'
p87
NsS'y'
p88
I263
stp89
a(S'GPi'
p90
g81
(dp91
S'height'
p92
I75
sS'x'
p93
I555
sS'label'
p94
I1
sS'width'
p95
I60
sg87
NsS'y'
p96
I275
stp97
a(S'motor'
p98
S'semantic pointer'
p99
(dp100
S'height'
p101
I117
sS'x'
p102
I614
sS'sel_dim'
p103
(lp104
I0
aI1
aI2
aI3
aI4
asS'label'
p105
I0
sS'autozoom'
p106
I0
sS'width'
p107
I176
sS'last_maxy'
p108
F1.0000000000000007
sS'y'
p109
I-8
stp110
a(S'visual'
p111
S'value (grid)|X'
p112
(dp113
S'height'
p114
I65
sS'x'
p115
I32
sS'label'
p116
I0
sS'width'
p117
I67
sS'y'
p118
I10
stp119
a(S'memory'
p120
S'value (grid)|X'
p121
(dp122
S'height'
p123
I67
sS'x'
p124
I258
sS'label'
p125
I0
sS'width'
p126
I67
sS'y'
p127
I25
stp128
a(S'motor'
p129
S'value (grid)|X'
p130
(dp131
S'height'
p132
I67
sS'x'
p133
I544
sS'label'
p134
I0
sS'width'
p135
I67
sS'y'
p136
I39
stp137
a(S'gate1'
p138
N(dp139
S'height'
p140
I32
sS'x'
p141
I125
sS'label'
p142
I0
sS'width'
p143
I60
sS'y'
p144
I215
stp145
a(S'gate2'
p146
N(dp147
S'height'
p148
I32
sS'x'
p149
I230
sS'label'
p150
I0
sS'width'
p151
I60
sS'y'
p152
I232
stp153
a(S'channel'
p154
N(dp155
S'height'
p156
I32
sS'x'
p157
I136
sS'label'
p158
I0
sS'width'
p159
I76
sS'y'
p160
I141
stp161
a(S'*'
p162
N(dp163
S'height'
p164
I32
sS'x'
p165
I382
sS'label'
p166
I0
sS'width'
p167
I18
sS'y'
p168
I129
stp169
a(S'gate1'
p170
S'firing rate'
p171
(dp172
S'height'
p173
I57
sS'x'
p174
I75
sS'auto_improve'
p175
I0
sS'label'
p176
I1
sS'width'
p177
I42
sg87
NsS'y'
p178
I187
stp179
a(S'gate2'
p180
g171
(dp181
S'height'
p182
I54
sS'x'
p183
I236
sg175
I0
sS'label'
p184
I1
sS'width'
p185
I43
sg87
NsS'y'
p186
I177
stp187
a(dp188
S'sim_spd'
p189
I4
sS'rcd_time'
p190
F4.0
sS'filter'
p191
F0.03
sS'dt'
p192
I0
sS'show_time'
p193
F0.5
stp194
.r'
p190
F0.03
sS'dt'
p191
I0
sS'show_time'
p192
F0.5
stp193
.